; Function Attrs: mustprogress nofree norecurse nosync nounwind willreturn memory(read, inaccessiblemem: none) uwtable
define hidden noundef zeroext i1 @_ZNK11state_graph7is_doneEj(ptr noundef nonnull readonly align 8 captures(none) dereferenceable(152) %0, i32 noundef %1) local_unnamed_addr #8 align 2 {
  %3 = getelementptr inbounds nuw i8, ptr %0, i64 32
  %4 = lshr i32 %1, 5
  %5 = load ptr, ptr %3, align 8, !tbaa !3
  %6 = icmp eq ptr %5, null
  br i1 %6, label %_ZNK8uint_set8containsEj.exit.thread, label %_ZNK6vectorIjLb0EjE4sizeEv.exit.i

_ZNK6vectorIjLb0EjE4sizeEv.exit.i:                ; preds = %2
  %7 = getelementptr inbounds i8, ptr %5, i64 -4
  %8 = load i32, ptr %7, align 4, !tbaa !9
  %9 = icmp ult i32 %4, %8
  br i1 %9, label %_ZNK8uint_set8containsEj.exit, label %_ZNK8uint_set8containsEj.exit.thread

_ZNK8uint_set8containsEj.exit:                    ; preds = %_ZNK6vectorIjLb0EjE4sizeEv.exit.i
  %10 = zext nneg i32 %4 to i64
  %11 = getelementptr inbounds nuw i32, ptr %5, i64 %10
  %12 = load i32, ptr %11, align 4, !tbaa !9
  %13 = and i32 %1, 31
  %14 = shl nuw i32 1, %13
  %15 = and i32 %12, %14
  %.not = icmp eq i32 %15, 0
  br i1 %.not, label %_ZNK8uint_set8containsEj.exit.thread, label %16

16:                                               ; preds = %_ZNK8uint_set8containsEj.exit
  %17 = getelementptr inbounds nuw i8, ptr %0, i64 24
  %18 = getelementptr inbounds nuw i8, ptr %0, i64 40
  %19 = load ptr, ptr %18, align 8, !tbaa !3
  %20 = icmp eq ptr %19, null
  br i1 %20, label %_ZNK16basic_union_find4findEj.exit, label %_ZNK16basic_union_find12get_num_varsEv.exit.i

_ZNK16basic_union_find12get_num_varsEv.exit.i:    ; preds = %16
  %21 = getelementptr inbounds i8, ptr %19, i64 -4
  %22 = load i32, ptr %21, align 4, !tbaa !9
  %.not.i = icmp ult i32 %1, %22
  br i1 %.not.i, label %.preheader.i, label %_ZNK16basic_union_find4findEj.exit

.preheader.i:                                     ; preds = %_ZNK16basic_union_find12get_num_varsEv.exit.i, %.preheader.i
  %.010.i = phi i32 [ %25, %.preheader.i ], [ %1, %_ZNK16basic_union_find12get_num_varsEv.exit.i ]
  %23 = zext i32 %.010.i to i64
  %24 = getelementptr inbounds nuw i32, ptr %19, i64 %23
  %25 = load i32, ptr %24, align 4, !tbaa !9
  %.not17.i = icmp eq i32 %25, %.010.i
  br i1 %.not17.i, label %_ZNK16basic_union_find4findEj.exit.loopexit, label %.preheader.i

_ZNK16basic_union_find4findEj.exit.loopexit:      ; preds = %.preheader.i
  %.pre = lshr i32 %.010.i, 5
  br label %_ZNK16basic_union_find4findEj.exit

_ZNK16basic_union_find4findEj.exit:               ; preds = %_ZNK16basic_union_find4findEj.exit.loopexit, %16, %_ZNK16basic_union_find12get_num_varsEv.exit.i
  %.pre-phi = phi i32 [ %.pre, %_ZNK16basic_union_find4findEj.exit.loopexit ], [ %4, %16 ], [ %4, %_ZNK16basic_union_find12get_num_varsEv.exit.i ]
  %.09.i = phi i32 [ %.010.i, %_ZNK16basic_union_find4findEj.exit.loopexit ], [ %1, %16 ], [ %1, %_ZNK16basic_union_find12get_num_varsEv.exit.i ]
  %26 = load ptr, ptr %17, align 8, !tbaa !3
  %27 = icmp eq ptr %26, null
  br i1 %27, label %_ZNK8uint_set8containsEj.exit.thread, label %_ZNK6vectorIjLb0EjE4sizeEv.exit.i2

_ZNK6vectorIjLb0EjE4sizeEv.exit.i2:               ; preds = %_ZNK16basic_union_find4findEj.exit
  %28 = getelementptr inbounds i8, ptr %26, i64 -4
  %29 = load i32, ptr %28, align 4, !tbaa !9
  %30 = icmp ult i32 %.pre-phi, %29
  br i1 %30, label %31, label %_ZNK8uint_set8containsEj.exit.thread

31:                                               ; preds = %_ZNK6vectorIjLb0EjE4sizeEv.exit.i2
  %32 = zext nneg i32 %.pre-phi to i64
  %33 = getelementptr inbounds nuw i32, ptr %26, i64 %32
  %34 = load i32, ptr %33, align 4, !tbaa !9
  %35 = and i32 %.09.i, 31
  %36 = shl nuw i32 1, %35
  %37 = and i32 %34, %36
  %38 = icmp eq i32 %37, 0
  br label %_ZNK8uint_set8containsEj.exit.thread

_ZNK8uint_set8containsEj.exit.thread:             ; preds = %31, %_ZNK6vectorIjLb0EjE4sizeEv.exit.i2, %_ZNK16basic_union_find4findEj.exit, %2, %_ZNK6vectorIjLb0EjE4sizeEv.exit.i, %_ZNK8uint_set8containsEj.exit
  %39 = phi i1 [ false, %_ZNK8uint_set8containsEj.exit ], [ false, %_ZNK6vectorIjLb0EjE4sizeEv.exit.i ], [ false, %2 ], [ true, %_ZNK6vectorIjLb0EjE4sizeEv.exit.i2 ], [ %38, %31 ], [ true, %_ZNK16basic_union_find4findEj.exit ]
  ret i1 %39
}